; Function Attrs: nounwind uwtable
define dso_local i32 @select_g_select_jobinfo_pack(ptr noundef readonly captures(address_is_null) %0, ptr noundef %1, i16 noundef zeroext %2) local_unnamed_addr #0 {
  %.not = icmp eq ptr %0, null
  br i1 %.not, label %7, label %4

4:                                                ; preds = %3
  %5 = load ptr, ptr %0, align 8
  %6 = getelementptr inbounds nuw i8, ptr %0, i64 8
  br label %7

7:                                                ; preds = %3, %4
  %.010 = phi ptr [ %5, %4 ], [ null, %3 ]
  %.0.in = phi ptr [ %6, %4 ], [ @select_context_default, %3 ]
  %.0 = load i32, ptr %.0.in, align 4
  %8 = icmp ugt i16 %2, 10239
  br i1 %8, label %9, label %15

9:                                                ; preds = %7
  %10 = load ptr, ptr @ops, align 8
  %11 = zext i32 %.0 to i64
  %12 = getelementptr inbounds nuw %struct.slurm_select_ops_t, ptr %10, i64 %11
  %13 = load ptr, ptr %12, align 8
  %14 = load i32, ptr %13, align 4
  tail call void @pack32(i32 noundef %14, ptr noundef %1) #15
  br label %18

15:                                               ; preds = %7
  %16 = zext nneg i16 %2 to i32
  %17 = tail call i32 (ptr, ...) @error(ptr noundef nonnull @.str.29, ptr noundef nonnull @__func__.select_g_select_jobinfo_pack, i32 noundef %16) #15
  %.pre = zext i32 %.0 to i64
  br label %18

18:                                               ; preds = %15, %9
  %.pre-phi = phi i64 [ %.pre, %15 ], [ %11, %9 ]
  %19 = load ptr, ptr @ops, align 8
  %20 = getelementptr inbounds nuw %struct.slurm_select_ops_t, ptr %19, i64 %.pre-phi, i32 28
  %21 = load ptr, ptr %20, align 8
  %22 = tail call i32 %21(ptr noundef %.010, ptr noundef %1, i16 noundef zeroext %2) #15
  ret i32 %22
}